(dp0
S'PACKER'
p1
(dp2
S'determinism'
p3
cnumpy.core.multiarray
scalar
p4
(cnumpy
dtype
p5
(S'f8'
p6
I0
I1
tp7
Rp8
(I3
S'<'
p9
NNNI-1
I-1
I0
tp10
bS'\x08\x11 \xbf\x17K\x13@'
p11
tp12
Rp13
sS'tradeoff'
p14
g4
(g8
S'l7JL\xe1\xd3\xde?'
p15
tp16
Rp17
sS'specificity'
p18
g4
(g8
S'\x04\x1as\xeb\x8e0\xf2?'
p19
tp20
Rp21
ssS'Copy and Tweak'
p22
(dp23
g3
g4
(g8
S'\xe8\xfb\xa1\xf4\x0b\xb5\r@'
p24
tp25
Rp26
sg18
g4
(g8
S'\x94\x95\x8f\xcc\x16\x93\x13@'
p27
tp28
Rp29
ssS'Hierarchical Sampling'
p30
(dp31
S'category_variance_bias'
p32
g4
(g8
S'\xac\xb4\xcd\xf33\x1d\xfd?'
p33
tp34
Rp35
sg3
g4
(g8
S'\xd8\x11Am\xe17\x05@'
p36
tp37
Rp38
sS'category_mean_bias'
p39
F1e-10
sS'domain_variance_bias'
p40
g4
(g8
S':\x91\x1b\xaf\xc9\x98\xb6?'
p41
tp42
Rp43
ss.