(dp0
S'PACKER'
p1
(dp2
S'determinism'
p3
cnumpy.core.multiarray
scalar
p4
(cnumpy
dtype
p5
(S'f8'
p6
I0
I1
tp7
Rp8
(I3
S'<'
p9
NNNI-1
I-1
I0
tp10
bS'\x12\x16I\x91\xa2\x87\x1a@'
p11
tp12
Rp13
sS'tradeoff'
p14
g4
(g8
S'q\xee\x07\xdb\x7f\xfe\xdd?'
p15
tp16
Rp17
sS'specificity'
p18
g4
(g8
S'\x07\xca\xc3\xc4\xb0\x10\xe2?'
p19
tp20
Rp21
ssS'Copy and Tweak'
p22
(dp23
g3
g4
(g8
S'\x1c\xe5ut\x01\xb6\r@'
p24
tp25
Rp26
sg18
g4
(g8
S'\xd8\xd2\t\xf5V\x95\x13@'
p27
tp28
Rp29
ssS'Hierarchical Sampling'
p30
(dp31
S'category_variance_bias'
p32
g4
(g8
S'`\xb4\xe3\x93\xbc\xa3\x12@'
p33
tp34
Rp35
sg3
g4
(g8
S'`\x1dT\xa3y*\x06@'
p36
tp37
Rp38
sS'category_mean_bias'
p39
F1e-10
sS'domain_variance_bias'
p40
g4
(g8
S'x\x96\x95D\xa9\xa6\xa5?'
p41
tp42
Rp43
ss.